ccopy_reg
_reconstructor
p1
(cpandas.core.frame
DataFrame
p2
c__builtin__
object
p3
NtRp4
(dp5
S'_metadata'
p6
(lp7
sS'_typ'
p8
S'dataframe'
p9
sS'_data'
p10
g1
(cpandas.core.internals
BlockManager
p11
g3
NtRp12
((lp13
cpandas.indexes.base
_new_Index
p14
(cpandas.indexes.base
Index
p15
(dp16
S'data'
p17
cnumpy.core.multiarray
_reconstruct
p18
(cnumpy
ndarray
p19
(I0
tS'b'
tRp20
(I1
(I17
tcnumpy
dtype
p21
(S'O8'
I0
I1
tRp22
(I3
S'|'
NNNI-1
I-1
I63
tbI00
(lp23
S'ALQ120Q'
p24
aS'DR1TSUGR'
p25
aS'RIDAGEYR'
p26
aS'DR1TCHOL'
p27
aS'BPQ090D'
p28
aS'BPQ070'
p29
aS'OCQ380'
p30
aS'CBD120'
p31
aS'PAD680'
p32
aS'CBD070'
p33
aS'BPQ040A'
p34
aS'DR1TFIBE'
p35
aS'DR1TPFAT'
p36
aS'DR1TKCAL'
p37
aS'BPQ080'
p38
aS'DR1TCARB'
p39
aS'index'
p40
atbsS'name'
p41
NstRp42
ag14
(cpandas.indexes.range
RangeIndex
p43
(dp44
S'start'
p45
I0
sS'step'
p46
I1
sS'stop'
p47
I1
sg41
NstRp48
a(lp49
g18
(g19
(I0
tS'b'
tRp50
(I1
(I16
I1
tg21
(S'f8'
I0
I1
tRp51
(I3
S'<'
NNNI-1
I-1
I0
tbI00
S'\x00\x00\x00\x00\x00\x00\x00@p=\n\xd7\xa3\xd0X@\x00\x00\x00\x00\x00\x00H@\x00\x00\x00\x00\x00@k@\x00\x00\x00\x00\x00\x00\x00@\x00\x00\x00\x00\x00\x00\xf0?\x00\x00\x00\x00\x00\x00\x08@\x00\x00\x00\x00\x00@U@\x00\x00\x00\x00\x00\xc0r@\x00\x00\x00\x00\x00\xe0u@\x00\x00\x00\x00\x00\x00\xf0?\x9b\x99\x99\x99\x99\x99,@\x8cl\xe7\xfb\xa9\xf1-@\x00\x00\x00\x00\x00\xdc\x9d@\x00\x00\x00\x00\x00\x00\x00@H\xe1z\x14\xaeSm@'
tbag18
(g19
(I0
tS'b'
tRp52
(I1
(I1
I1
tg21
(S'i8'
I0
I1
tRp53
(I3
S'<'
NNNI-1
I-1
I0
tbI00
S'\x00\x00\x00\x00\x00\x00\x00\x00'
tba(lp54
g14
(g15
(dp55
g17
g18
(g19
(I0
tS'b'
tRp56
(I1
(I16
tg22
I00
(lp57
g24
ag25
ag26
ag27
ag28
ag29
ag30
ag31
ag32
ag33
ag34
ag35
ag36
ag37
ag38
ag39
atbsg41
NstRp58
ag14
(g15
(dp59
g17
g18
(g19
(I0
tS'b'
tRp60
(I1
(I1
tg22
I00
(lp61
g40
atbsg41
NstRp62
a(dp63
S'0.14.1'
p64
(dp65
S'axes'
p66
g13
sS'blocks'
p67
(lp68
(dp69
S'mgr_locs'
p70
c__builtin__
slice
p71
(I0
I16
I1
tRp72
sS'values'
p73
g50
sa(dp74
g70
g71
(I16
I17
I1
tRp75
sg73
g52
sasstbsb.