ccopy_reg
_reconstructor
p1
(cpandas.core.frame
DataFrame
p2
c__builtin__
object
p3
NtRp4
(dp5
S'_metadata'
p6
(lp7
sS'_typ'
p8
S'dataframe'
p9
sS'_data'
p10
g1
(cpandas.core.internals
BlockManager
p11
g3
NtRp12
((lp13
cpandas.indexes.base
_new_Index
p14
(cpandas.indexes.base
Index
p15
(dp16
S'data'
p17
cnumpy.core.multiarray
_reconstruct
p18
(cnumpy
ndarray
p19
(I0
tS'b'
tRp20
(I1
(I16
tcnumpy
dtype
p21
(S'O8'
I0
I1
tRp22
(I3
S'|'
NNNI-1
I-1
I63
tbI00
(lp23
S'ALQ120Q'
p24
aS'DR1TSUGR'
p25
aS'RIDAGEYR'
p26
aS'DR1TCHOL'
p27
aS'BPQ090D'
p28
aS'BPQ070'
p29
aS'OCQ380'
p30
aS'CBD120'
p31
aS'PAD680'
p32
aS'CBD070'
p33
aS'BPQ040A'
p34
aS'DR1TFIBE'
p35
aS'DR1TPFAT'
p36
aS'DR1TKCAL'
p37
aS'BPQ080'
p38
aS'DR1TCARB'
p39
atbsS'name'
p40
NstRp41
ag14
(cpandas.indexes.numeric
Int64Index
p42
(dp43
g17
g18
(g19
(I0
tS'b'
tRp44
(I1
(I1
tg21
(S'i8'
I0
I1
tRp45
(I3
S'<'
NNNI-1
I-1
I0
tbI00
S'\x00\x00\x00\x00\x00\x00\x00\x00'
tbsg40
NstRp46
a(lp47
g18
(g19
(I0
tS'b'
tRp48
(I1
(I16
I1
tg21
(S'f8'
I0
I1
tRp49
(I3
S'<'
NNNI-1
I-1
I0
tbI00
S'\x00\x00\x00\x00\x00\x00\x00@p=\n\xd7\xa3\xd0X@\x00\x00\x00\x00\x00\x00H@\x00\x00\x00\x00\x00@k@\x00\x00\x00\x00\x00\x00\x00@\x00\x00\x00\x00\x00\x00\xf0?\x00\x00\x00\x00\x00\x00\x08@\x00\x00\x00\x00\x00@U@\x00\x00\x00\x00\x00\xc0r@\x00\x00\x00\x00\x00\xe0u@\x00\x00\x00\x00\x00\x00\xf0?\x9b\x99\x99\x99\x99\x99,@\x8cl\xe7\xfb\xa9\xf1-@\x00\x00\x00\x00\x00\xdc\x9d@\x00\x00\x00\x00\x00\x00\x00@H\xe1z\x14\xaeSm@'
tba(lp50
g14
(g15
(dp51
g17
g18
(g19
(I0
tS'b'
tRp52
(I1
(I16
tg22
I00
(lp53
g24
ag25
ag26
ag27
ag28
ag29
ag30
ag31
ag32
ag33
ag34
ag35
ag36
ag37
ag38
ag39
atbsg40
NstRp54
a(dp55
S'0.14.1'
p56
(dp57
S'axes'
p58
g13
sS'blocks'
p59
(lp60
(dp61
S'mgr_locs'
p62
c__builtin__
slice
p63
(I0
I16
I1
tRp64
sS'values'
p65
g48
sasstbsb.