ccopy_reg
_reconstructor
p1
(cpandas.core.frame
DataFrame
p2
c__builtin__
object
p3
NtRp4
(dp5
S'_metadata'
p6
(lp7
sS'_typ'
p8
S'dataframe'
p9
sS'_data'
p10
g1
(cpandas.core.internals
BlockManager
p11
g3
NtRp12
((lp13
cpandas.indexes.base
_new_Index
p14
(cpandas.indexes.base
Index
p15
(dp16
S'data'
p17
cnumpy.core.multiarray
_reconstruct
p18
(cnumpy
ndarray
p19
(I0
tS'b'
tRp20
(I1
(I15
tcnumpy
dtype
p21
(S'O8'
I0
I1
tRp22
(I3
S'|'
NNNI-1
I-1
I63
tbI00
(lp23
S'ALQ120Q'
p24
aS'BPQ040A'
p25
aS'BPQ050A'
p26
aS'BPQ080'
p27
aS'CBD070'
p28
aS'DR2TCARB'
p29
aS'DR2TCHOL'
p30
aS'DR2TFIBE'
p31
aS'DR2TKCAL'
p32
aS'DR2TPFAT'
p33
aS'DR2TPROT'
p34
aS'DR2TSUGR'
p35
aS'PAD680'
p36
aS'PAQ710'
p37
aS'RIDAGEYR'
p38
atbsS'name'
p39
NstRp40
ag14
(cpandas.indexes.numeric
Int64Index
p41
(dp42
g17
g18
(g19
(I0
tS'b'
tRp43
(I1
(I1
tg21
(S'i8'
I0
I1
tRp44
(I3
S'<'
NNNI-1
I-1
I0
tbI00
S'\x00\x00\x00\x00\x00\x00\x00\x00'
tbsg39
NstRp45
a(lp46
g18
(g19
(I0
tS'b'
tRp47
(I1
(I15
I1
tg21
(S'f8'
I0
I1
tRp48
(I3
S'<'
NNNI-1
I-1
I0
tbI00
S'\x00\x00\x00\x00\x00\xe0u@\x00\x00\x00\x00\x00\x00\x00@\x00\x00\x00\x00\x00\xc0r@\x00\x00\x00\x00\x00\x00H@\x00\x00\x00\x00\x00@j@D\x8bl\xe7\xfb),@Q\xb8\x1e\x85\xeb\x01R@\x00\x00\x00\x00\x00\x00\xf0?\x00\x00\x00\x00\x00`\x9c@\x00\x00\x00\x00\x00\x00\x00@\x99\x99\x99\x99\x99\x99-@\x00\x00\x00\x00\x00\x00\x00@p=\n\xd7\xa3PW@)\\\x8f\xc2\xf5Hl@\x00\x00\x00\x00\x00\x00\xf0?'
tba(lp49
g14
(g15
(dp50
g17
g18
(g19
(I0
tS'b'
tRp51
(I1
(I15
tg22
I00
(lp52
g24
ag25
ag26
ag27
ag28
ag29
ag30
ag31
ag32
ag33
ag34
ag35
ag36
ag37
ag38
atbsg39
NstRp53
a(dp54
S'0.14.1'
p55
(dp56
S'axes'
p57
g13
sS'blocks'
p58
(lp59
(dp60
S'mgr_locs'
p61
c__builtin__
slice
p62
(I0
I15
I1
tRp63
sS'values'
p64
g47
sasstbsb.